; Function Attrs: nounwind uwtable
define dso_local void @bitmap_set(ptr noundef captures(none) %0, i64 noundef %1) local_unnamed_addr #0 {
  %3 = lshr i64 %1, 6
  %4 = getelementptr inbounds nuw i8, ptr %0, i64 8
  %5 = load i64, ptr %4, align 8, !tbaa !11
  %.not = icmp ult i64 %3, %5
  br i1 %.not, label %._crit_edge.i, label %st_mult.exit.i

._crit_edge.i:                                    ; preds = %2
  %.pre.i = load ptr, ptr %0, align 8, !tbaa !4
  br label %bitmap_grow.exit

st_mult.exit.i:                                   ; preds = %2
  %6 = add nuw nsw i64 %3, 1
  %7 = mul nuw nsw i64 %5, 3
  %8 = add nuw nsw i64 %7, 48
  %9 = lshr i64 %8, 1
  %..i = tail call i64 @llvm.umax.i64(i64 %9, i64 %6)
  store i64 %..i, ptr %4, align 8, !tbaa !11
  %10 = load ptr, ptr %0, align 8, !tbaa !4
  %11 = shl nuw nsw i64 %..i, 3
  %12 = tail call ptr @xrealloc(ptr noundef %10, i64 noundef %11) #13
  store ptr %12, ptr %0, align 8, !tbaa !4
  %.pre17.i = load i64, ptr %4, align 8, !tbaa !11
  br label %bitmap_grow.exit

bitmap_grow.exit:                                 ; preds = %._crit_edge.i, %st_mult.exit.i
  %13 = phi i64 [ %5, %._crit_edge.i ], [ %.pre17.i, %st_mult.exit.i ]
  %14 = phi ptr [ %.pre.i, %._crit_edge.i ], [ %12, %st_mult.exit.i ]
  %15 = getelementptr inbounds nuw i64, ptr %14, i64 %5
  %16 = sub i64 %13, %5
  %17 = shl i64 %16, 3
  tail call void @llvm.memset.p0.i64(ptr align 8 %15, i8 0, i64 %17, i1 false)
  %18 = and i64 %1, 63
  %19 = shl nuw i64 1, %18
  %20 = load ptr, ptr %0, align 8, !tbaa !4
  %21 = getelementptr inbounds nuw i64, ptr %20, i64 %3
  %22 = load i64, ptr %21, align 8, !tbaa !12
  %23 = or i64 %22, %19
  store i64 %23, ptr %21, align 8, !tbaa !12
  ret void
}